target datalayout = "e-m:e-p270:32:32-p271:32:32-p272:64:64-i64:64-i128:128-f80:128-n8:16:32:64-S128"
target triple = "x86_64-unknown-linux-gnu"

%"union.base::debug::(anonymous namespace)::ThreadRef" = type { i64 }
%"class.base::debug::ThreadActivityTracker" = type <{ ptr, ptr, ptr, i32, i8, %"class.base::ThreadChecker", [2 x i8] }>
%"class.base::ThreadChecker" = type { i8 }
%"struct.base::debug::ThreadActivityTracker::Header" = type <{ %"struct.std::atomic", i32, %"struct.std::atomic.8", %"union.base::debug::(anonymous namespace)::ThreadRef", i64, i64, i32, %"struct.std::atomic", %"struct.std::atomic", [32 x i8], [4 x i8] }>
%"struct.std::atomic.8" = type { %"struct.std::__atomic_base.9" }
%"struct.std::__atomic_base.9" = type { i64 }
%"struct.std::atomic" = type { %"struct.std::__atomic_base" }
%"struct.std::__atomic_base" = type { i32 }

; Function Attrs: mustprogress nounwind uwtable
define linkonce_odr dso_local noundef i32 @_ZStanSt12memory_orderSt23__memory_order_modifier(i32 noundef %__m, i32 noundef %__mod) #1 comdat {
entry:
  %__m.addr = alloca i32, align 4
  %__mod.addr = alloca i32, align 4
  store i32 %__m, ptr %__m.addr, align 4
  store i32 %__mod, ptr %__mod.addr, align 4
  %0 = load i32, ptr %__m.addr, align 4
  %1 = load i32, ptr %__mod.addr, align 4
  %and = and i32 %0, %1
  ret i32 %and
}

; Function Attrs: mustprogress nounwind uwtable
define dso_local noundef zeroext i1 @_ZNK4base5debug21ThreadActivityTracker7IsValidEv(ptr noundef nonnull align 8 dereferenceable(30) %this) #1 align 2 {
entry:
  %this.addr.i20 = alloca ptr, align 8
  %__m.addr.i21 = alloca i32, align 4
  %__b.i22 = alloca i32, align 4
  %atomic-temp.i23 = alloca i64, align 8
  %this.addr.i = alloca ptr, align 8
  %__m.addr.i = alloca i32, align 4
  %__b.i = alloca i32, align 4
  %atomic-temp.i = alloca i32, align 4
  %retval = alloca i1, align 1
  %this.addr = alloca ptr, align 8
  store ptr %this, ptr %this.addr, align 8
  %this1 = load ptr, ptr %this.addr, align 8
  %header_ = getelementptr inbounds %"class.base::debug::ThreadActivityTracker", ptr %this1, i32 0, i32 1
  %0 = load ptr, ptr %header_, align 8
  %cookie = getelementptr inbounds %"struct.base::debug::ThreadActivityTracker::Header", ptr %0, i32 0, i32 0
  store ptr %cookie, ptr %this.addr.i, align 8
  store i32 2, ptr %__m.addr.i, align 4
  %this1.i = load ptr, ptr %this.addr.i, align 8
  %1 = load i32, ptr %__m.addr.i, align 4
  %call.i = call noundef i32 @_ZStanSt12memory_orderSt23__memory_order_modifier(i32 noundef %1, i32 noundef 65535)
  store i32 %call.i, ptr %__b.i, align 4
  %2 = load i32, ptr %__m.addr.i, align 4
  switch i32 %2, label %monotonic.i [
    i32 1, label %acquire.i
    i32 2, label %acquire.i
    i32 5, label %seqcst.i
  ]

monotonic.i:                                      ; preds = %entry
  %3 = load atomic i32, ptr %this1.i monotonic, align 4
  store i32 %3, ptr %atomic-temp.i, align 4
  br label %_ZNKSt13__atomic_baseIjE4loadESt12memory_order.exit

acquire.i:                                        ; preds = %entry, %entry
  %4 = load atomic i32, ptr %this1.i acquire, align 4
  store i32 %4, ptr %atomic-temp.i, align 4
  br label %_ZNKSt13__atomic_baseIjE4loadESt12memory_order.exit

seqcst.i:                                         ; preds = %entry
  %5 = load atomic i32, ptr %this1.i seq_cst, align 4
  store i32 %5, ptr %atomic-temp.i, align 4
  br label %_ZNKSt13__atomic_baseIjE4loadESt12memory_order.exit

_ZNKSt13__atomic_baseIjE4loadESt12memory_order.exit: ; preds = %seqcst.i, %acquire.i, %monotonic.i
  %6 = load i32, ptr %atomic-temp.i, align 4
  %cmp = icmp ne i32 %6, -1073571034
  br i1 %cmp, label %if.then, label %lor.lhs.false

lor.lhs.false:                                    ; preds = %_ZNKSt13__atomic_baseIjE4loadESt12memory_order.exit
  %header_2 = getelementptr inbounds %"class.base::debug::ThreadActivityTracker", ptr %this1, i32 0, i32 1
  %7 = load ptr, ptr %header_2, align 8
  %process_id = getelementptr inbounds %"struct.base::debug::ThreadActivityTracker::Header", ptr %7, i32 0, i32 2
  store ptr %process_id, ptr %this.addr.i20, align 8
  store i32 0, ptr %__m.addr.i21, align 4
  %this1.i24 = load ptr, ptr %this.addr.i20, align 8
  %8 = load i32, ptr %__m.addr.i21, align 4
  %call.i25 = call noundef i32 @_ZStanSt12memory_orderSt23__memory_order_modifier(i32 noundef %8, i32 noundef 65535)
  store i32 %call.i25, ptr %__b.i22, align 4
  %9 = load i32, ptr %__m.addr.i21, align 4
  switch i32 %9, label %monotonic.i28 [
    i32 1, label %acquire.i27
    i32 2, label %acquire.i27
    i32 5, label %seqcst.i26
  ]

monotonic.i28:                                    ; preds = %lor.lhs.false
  %10 = load atomic i64, ptr %this1.i24 monotonic, align 8
  store i64 %10, ptr %atomic-temp.i23, align 8
  br label %_ZNKSt13__atomic_baseIlE4loadESt12memory_order.exit

acquire.i27:                                      ; preds = %lor.lhs.false, %lor.lhs.false
  %11 = load atomic i64, ptr %this1.i24 acquire, align 8
  store i64 %11, ptr %atomic-temp.i23, align 8
  br label %_ZNKSt13__atomic_baseIlE4loadESt12memory_order.exit

seqcst.i26:                                       ; preds = %lor.lhs.false
  %12 = load atomic i64, ptr %this1.i24 seq_cst, align 8
  store i64 %12, ptr %atomic-temp.i23, align 8
  br label %_ZNKSt13__atomic_baseIlE4loadESt12memory_order.exit

_ZNKSt13__atomic_baseIlE4loadESt12memory_order.exit: ; preds = %seqcst.i26, %acquire.i27, %monotonic.i28
  %13 = load i64, ptr %atomic-temp.i23, align 8
  %cmp4 = icmp eq i64 %13, 0
  br i1 %cmp4, label %if.then, label %lor.lhs.false5

lor.lhs.false5:                                   ; preds = %_ZNKSt13__atomic_baseIlE4loadESt12memory_order.exit
  %header_6 = getelementptr inbounds %"class.base::debug::ThreadActivityTracker", ptr %this1, i32 0, i32 1
  %14 = load ptr, ptr %header_6, align 8
  %thread_ref = getelementptr inbounds %"struct.base::debug::ThreadActivityTracker::Header", ptr %14, i32 0, i32 3
  %15 = load i64, ptr %thread_ref, align 8
  %cmp7 = icmp eq i64 %15, 0
  br i1 %cmp7, label %if.then, label %lor.lhs.false8

lor.lhs.false8:                                   ; preds = %lor.lhs.false5
  %header_9 = getelementptr inbounds %"class.base::debug::ThreadActivityTracker", ptr %this1, i32 0, i32 1
  %16 = load ptr, ptr %header_9, align 8
  %start_time = getelementptr inbounds %"struct.base::debug::ThreadActivityTracker::Header", ptr %16, i32 0, i32 4
  %17 = load i64, ptr %start_time, align 8
  %cmp10 = icmp eq i64 %17, 0
  br i1 %cmp10, label %if.then, label %lor.lhs.false11

lor.lhs.false11:                                  ; preds = %lor.lhs.false8
  %header_12 = getelementptr inbounds %"class.base::debug::ThreadActivityTracker", ptr %this1, i32 0, i32 1
  %18 = load ptr, ptr %header_12, align 8
  %start_ticks = getelementptr inbounds %"struct.base::debug::ThreadActivityTracker::Header", ptr %18, i32 0, i32 5
  %19 = load i64, ptr %start_ticks, align 8
  %cmp13 = icmp eq i64 %19, 0
  br i1 %cmp13, label %if.then, label %lor.lhs.false14

lor.lhs.false14:                                  ; preds = %lor.lhs.false11
  %header_15 = getelementptr inbounds %"class.base::debug::ThreadActivityTracker", ptr %this1, i32 0, i32 1
  %20 = load ptr, ptr %header_15, align 8
  %stack_slots = getelementptr inbounds %"struct.base::debug::ThreadActivityTracker::Header", ptr %20, i32 0, i32 6
  %21 = load i32, ptr %stack_slots, align 8
  %stack_slots_ = getelementptr inbounds %"class.base::debug::ThreadActivityTracker", ptr %this1, i32 0, i32 3
  %22 = load i32, ptr %stack_slots_, align 8
  %cmp16 = icmp ne i32 %21, %22
  br i1 %cmp16, label %if.then, label %lor.lhs.false17

lor.lhs.false17:                                  ; preds = %lor.lhs.false14
  %header_18 = getelementptr inbounds %"class.base::debug::ThreadActivityTracker", ptr %this1, i32 0, i32 1
  %23 = load ptr, ptr %header_18, align 8
  %thread_name = getelementptr inbounds %"struct.base::debug::ThreadActivityTracker::Header", ptr %23, i32 0, i32 9
  %arrayidx = getelementptr inbounds [32 x i8], ptr %thread_name, i64 0, i64 31
  %24 = load i8, ptr %arrayidx, align 1
  %conv = sext i8 %24 to i32
  %cmp19 = icmp ne i32 %conv, 0
  br i1 %cmp19, label %if.then, label %if.end

if.then:                                          ; preds = %lor.lhs.false17, %lor.lhs.false14, %lor.lhs.false11, %lor.lhs.false8, %lor.lhs.false5, %_ZNKSt13__atomic_baseIlE4loadESt12memory_order.exit, %_ZNKSt13__atomic_baseIjE4loadESt12memory_order.exit
  store i1 false, ptr %retval, align 1
  br label %return

if.end:                                           ; preds = %lor.lhs.false17
  %valid_ = getelementptr inbounds %"class.base::debug::ThreadActivityTracker", ptr %this1, i32 0, i32 4
  %25 = load i8, ptr %valid_, align 4
  %tobool = trunc i8 %25 to i1
  store i1 %tobool, ptr %retval, align 1
  br label %return

return:                                           ; preds = %if.end, %if.then
  %26 = load i1, ptr %retval, align 1
  ret i1 %26
}