; Function Attrs: mustprogress nofree norecurse nounwind willreturn memory(readwrite, inaccessiblemem: none) uwtable
define dso_local noundef zeroext i1 @_ZNK4base5debug21ThreadActivityTracker7IsValidEv(ptr nocapture noundef nonnull readonly align 8 dereferenceable(30) %this) local_unnamed_addr #6 align 2 {
entry:
  %header_ = getelementptr inbounds i8, ptr %this, i64 8
  %0 = load ptr, ptr %header_, align 8
  %1 = load atomic i32, ptr %0 acquire, align 4
  %cmp.not = icmp eq i32 %1, -1073571034
  br i1 %cmp.not, label %lor.lhs.false, label %return

lor.lhs.false:                                    ; preds = %entry
  %2 = load ptr, ptr %header_, align 8
  %process_id = getelementptr inbounds i8, ptr %2, i64 8
  %3 = load atomic i64, ptr %process_id monotonic, align 8
  %cmp4 = icmp eq i64 %3, 0
  br i1 %cmp4, label %return, label %lor.lhs.false5

lor.lhs.false5:                                   ; preds = %lor.lhs.false
  %thread_ref = getelementptr inbounds i8, ptr %2, i64 16
  %4 = load i64, ptr %thread_ref, align 8
  %cmp7 = icmp eq i64 %4, 0
  br i1 %cmp7, label %return, label %lor.lhs.false8

lor.lhs.false8:                                   ; preds = %lor.lhs.false5
  %start_time = getelementptr inbounds i8, ptr %2, i64 24
  %5 = load i64, ptr %start_time, align 8
  %cmp10 = icmp eq i64 %5, 0
  br i1 %cmp10, label %return, label %lor.lhs.false11

lor.lhs.false11:                                  ; preds = %lor.lhs.false8
  %start_ticks = getelementptr inbounds i8, ptr %2, i64 32
  %6 = load i64, ptr %start_ticks, align 8
  %cmp13 = icmp eq i64 %6, 0
  br i1 %cmp13, label %return, label %lor.lhs.false14

lor.lhs.false14:                                  ; preds = %lor.lhs.false11
  %stack_slots = getelementptr inbounds i8, ptr %2, i64 40
  %7 = load i32, ptr %stack_slots, align 8
  %stack_slots_ = getelementptr inbounds i8, ptr %this, i64 24
  %8 = load i32, ptr %stack_slots_, align 8
  %cmp16.not = icmp eq i32 %7, %8
  br i1 %cmp16.not, label %lor.lhs.false17, label %return

lor.lhs.false17:                                  ; preds = %lor.lhs.false14
  %arrayidx = getelementptr inbounds i8, ptr %2, i64 83
  %9 = load i8, ptr %arrayidx, align 1
  %cmp19.not = icmp eq i8 %9, 0
  br i1 %cmp19.not, label %if.end, label %return

if.end:                                           ; preds = %lor.lhs.false17
  %valid_ = getelementptr inbounds i8, ptr %this, i64 28
  %10 = load i8, ptr %valid_, align 4
  %11 = and i8 %10, 1
  %tobool = icmp ne i8 %11, 0
  br label %return

return:                                           ; preds = %entry, %lor.lhs.false, %lor.lhs.false5, %lor.lhs.false8, %lor.lhs.false11, %lor.lhs.false14, %lor.lhs.false17, %if.end
  %retval.0 = phi i1 [ %tobool, %if.end ], [ false, %lor.lhs.false17 ], [ false, %lor.lhs.false14 ], [ false, %lor.lhs.false11 ], [ false, %lor.lhs.false8 ], [ false, %lor.lhs.false5 ], [ false, %lor.lhs.false ], [ false, %entry ]
  ret i1 %retval.0
}